target datalayout = "e-m:e-p270:32:32-p271:32:32-p272:64:64-i64:64-i128:128-f80:128-n8:16:32:64-S128"
target triple = "x86_64-pc-linux-gnu"

%struct.commit_list = type { ptr, ptr }

; Function Attrs: nounwind uwtable
define dso_local ptr @commit_list_insert(ptr noundef %0, ptr noundef %1) #0 {
  %3 = alloca ptr, align 8
  %4 = alloca ptr, align 8
  %5 = alloca ptr, align 8
  store ptr %0, ptr %3, align 8, !tbaa !17
  store ptr %1, ptr %4, align 8, !tbaa !99
  call void @llvm.lifetime.start.p0(i64 8, ptr %5) #11
  %6 = call ptr @xmalloc(i64 noundef 16)
  store ptr %6, ptr %5, align 8, !tbaa !58
  %7 = load ptr, ptr %3, align 8, !tbaa !17
  %8 = load ptr, ptr %5, align 8, !tbaa !58
  %9 = getelementptr inbounds nuw %struct.commit_list, ptr %8, i32 0, i32 0
  store ptr %7, ptr %9, align 8, !tbaa !105
  %10 = load ptr, ptr %4, align 8, !tbaa !99
  %11 = load ptr, ptr %10, align 8, !tbaa !58
  %12 = load ptr, ptr %5, align 8, !tbaa !58
  %13 = getelementptr inbounds nuw %struct.commit_list, ptr %12, i32 0, i32 1
  store ptr %11, ptr %13, align 8, !tbaa !107
  %14 = load ptr, ptr %5, align 8, !tbaa !58
  %15 = load ptr, ptr %4, align 8, !tbaa !99
  store ptr %14, ptr %15, align 8, !tbaa !58
  %16 = load ptr, ptr %5, align 8, !tbaa !58
  call void @llvm.lifetime.end.p0(i64 8, ptr %5) #11
  ret ptr %16
}