; Function Attrs: nounwind uwtable
define dso_local noundef ptr @commit_list_insert(ptr noundef %0, ptr noundef captures(none) %1) local_unnamed_addr #0 {
  %3 = tail call ptr @xmalloc(i64 noundef 16) #24
  store ptr %0, ptr %3, align 8, !tbaa !89
  %4 = load ptr, ptr %1, align 8, !tbaa !90
  %5 = getelementptr inbounds nuw i8, ptr %3, i64 8
  store ptr %4, ptr %5, align 8, !tbaa !48
  store ptr %3, ptr %1, align 8, !tbaa !90
  ret ptr %3
}